; ModuleID = 'source-C-CXX/59/1458.c'
source_filename = "source-C-CXX/59/1458.c"
target datalayout = "e-m:e-p270:32:32-p271:32:32-p272:64:64-i64:64-f80:128-n8:16:32:64-S128"
target triple = "x86_64-pc-linux-gnu"

@.str = private unnamed_addr constant [3 x i8] c"%d\00", align 1
@.str.1 = private unnamed_addr constant [6 x i8] c"empty\00", align 1
@.str.2 = private unnamed_addr constant [7 x i8] c"%d %d\0A\00", align 1

; Function Attrs: nofree norecurse nosync nounwind readnone sspstrong uwtable
define dso_local i32 @f(i32 %0) local_unnamed_addr #0 {
  %2 = icmp slt i32 %0, 3
  br i1 %2, label %10, label %5

3:                                                ; preds = %5
  %4 = icmp eq i32 %9, %0
  br i1 %4, label %10, label %5, !llvm.loop !5

5:                                                ; preds = %1, %3
  %6 = phi i32 [ %9, %3 ], [ 2, %1 ]
  %7 = srem i32 %0, %6
  %8 = icmp eq i32 %7, 0
  %9 = add nuw nsw i32 %6, 1
  br i1 %8, label %10, label %3

10:                                               ; preds = %5, %3, %1
  %11 = phi i32 [ 0, %1 ], [ 0, %5 ], [ 1, %3 ]
  ret i32 %11
}

; Function Attrs: argmemonly mustprogress nofree nosync nounwind willreturn
declare void @llvm.lifetime.start.p0i8(i64 immarg, i8* nocapture) #1

; Function Attrs: argmemonly mustprogress nofree nosync nounwind willreturn
declare void @llvm.lifetime.end.p0i8(i64 immarg, i8* nocapture) #1

; Function Attrs: nofree nounwind sspstrong uwtable
define dso_local i32 @main() local_unnamed_addr #2 {
  %1 = alloca i32, align 4
  %2 = bitcast i32* %1 to i8*
  call void @llvm.lifetime.start.p0i8(i64 4, i8* nonnull %2) #4
  %3 = call i32 (i8*, ...) @__isoc99_scanf(i8* getelementptr inbounds ([3 x i8], [3 x i8]* @.str, i64 0, i64 0), i32* nonnull %1)
  %4 = load i32, i32* %1, align 4, !tbaa !7
  %5 = icmp slt i32 %4, 5
  br i1 %5, label %6, label %10

6:                                                ; preds = %0
  %7 = call i32 (i8*, ...) @printf(i8* nonnull dereferenceable(1) getelementptr inbounds ([6 x i8], [6 x i8]* @.str.1, i64 0, i64 0))
  %8 = load i32, i32* %1, align 4, !tbaa !7
  %9 = icmp sgt i32 %8, 4
  br i1 %9, label %10, label %39

10:                                               ; preds = %0, %6
  %11 = phi i32 [ %4, %0 ], [ %8, %6 ]
  br label %12

12:                                               ; preds = %10, %34
  %13 = phi i32 [ %35, %34 ], [ %11, %10 ]
  %14 = phi i32 [ %36, %34 ], [ 3, %10 ]
  br label %17

15:                                               ; preds = %17
  %16 = icmp eq i32 %21, %14
  br i1 %16, label %22, label %17, !llvm.loop !5

17:                                               ; preds = %12, %15
  %18 = phi i32 [ %21, %15 ], [ 2, %12 ]
  %19 = urem i32 %14, %18
  %20 = icmp eq i32 %19, 0
  %21 = add nuw nsw i32 %18, 1
  br i1 %20, label %34, label %15

22:                                               ; preds = %15
  %23 = add nuw nsw i32 %14, 2
  br label %26

24:                                               ; preds = %26
  %25 = icmp eq i32 %30, %23
  br i1 %25, label %31, label %26, !llvm.loop !5

26:                                               ; preds = %22, %24
  %27 = phi i32 [ %30, %24 ], [ 2, %22 ]
  %28 = urem i32 %23, %27
  %29 = icmp eq i32 %28, 0
  %30 = add nuw nsw i32 %27, 1
  br i1 %29, label %34, label %24

31:                                               ; preds = %24
  %32 = call i32 (i8*, ...) @printf(i8* nonnull dereferenceable(1) getelementptr inbounds ([7 x i8], [7 x i8]* @.str.2, i64 0, i64 0), i32 %14, i32 %23)
  %33 = load i32, i32* %1, align 4, !tbaa !7
  br label %34

34:                                               ; preds = %17, %26, %31
  %35 = phi i32 [ %33, %31 ], [ %13, %26 ], [ %13, %17 ]
  %36 = add nuw nsw i32 %14, 1
  %37 = add nsw i32 %35, -1
  %38 = icmp slt i32 %36, %37
  br i1 %38, label %12, label %39, !llvm.loop !11

39:                                               ; preds = %34, %6
  call void @llvm.lifetime.end.p0i8(i64 4, i8* nonnull %2) #4
  ret i32 0
}

; Function Attrs: nofree nounwind
declare noundef i32 @__isoc99_scanf(i8* nocapture noundef readonly, ...) local_unnamed_addr #3

; Function Attrs: nofree nounwind
declare noundef i32 @printf(i8* nocapture noundef readonly, ...) local_unnamed_addr #3


!llvm.module.flags = !{!0, !1, !2, !3}
!llvm.ident = !{!4}

!0 = !{i32 1, !"wchar_size", i32 4}
!1 = !{i32 7, !"PIC Level", i32 2}
!2 = !{i32 7, !"PIE Level", i32 2}
!3 = !{i32 7, !"uwtable", i32 1}
!4 = !{!"clang version 13.0.0"}
!5 = distinct !{!5, !6}
!6 = !{!"llvm.loop.mustprogress"}
!7 = !{!8, !8, i64 0}
!8 = !{!"int", !9, i64 0}
!9 = !{!"omnipotent char", !10, i64 0}
!10 = !{!"Simple C/C++ TBAA"}
!11 = distinct !{!11, !6}
